target datalayout = "e-m:e-p270:32:32-p271:32:32-p272:64:64-i64:64-i128:128-f80:128-n8:16:32:64-S128"
target triple = "x86_64-pc-linux-gnu"

%struct.stack_st = type { i64, ptr, i64, i64, ptr }

; Function Attrs: nounwind uwtable
define hidden void @sk_free(ptr noundef %0) #0 {
  %2 = alloca ptr, align 8
  store ptr %0, ptr %2, align 8, !tbaa !10
  %3 = load ptr, ptr %2, align 8, !tbaa !10
  %4 = icmp eq ptr %3, null
  br i1 %4, label %5, label %6

5:                                                ; preds = %1
  br label %11

6:                                                ; preds = %1
  %7 = load ptr, ptr %2, align 8, !tbaa !10
  %8 = getelementptr inbounds nuw %struct.stack_st, ptr %7, i32 0, i32 1
  %9 = load ptr, ptr %8, align 8, !tbaa !12
  call void @free(ptr noundef %9) #9
  %10 = load ptr, ptr %2, align 8, !tbaa !10
  call void @free(ptr noundef %10) #9
  br label %11

11:                                               ; preds = %6, %5
  ret void
}

; Function Attrs: nounwind uwtable
define hidden void @sk_pop_free(ptr noundef %0, ptr noundef %1) #0 {
  %3 = alloca ptr, align 8
  %4 = alloca ptr, align 8
  %5 = alloca i64, align 8
  %6 = alloca i32, align 4
  store ptr %0, ptr %3, align 8, !tbaa !10
  store ptr %1, ptr %4, align 8, !tbaa !6
  call void @llvm.lifetime.start.p0(i64 8, ptr %5) #9
  %7 = load ptr, ptr %3, align 8, !tbaa !10
  %8 = icmp eq ptr %7, null
  br i1 %8, label %9, label %10

9:                                                ; preds = %2
  store i32 1, ptr %6, align 4
  br label %39

10:                                               ; preds = %2
  store i64 0, ptr %5, align 8, !tbaa !19
  br label %11

11:                                               ; preds = %34, %10
  %12 = load i64, ptr %5, align 8, !tbaa !19
  %13 = load ptr, ptr %3, align 8, !tbaa !10
  %14 = getelementptr inbounds nuw %struct.stack_st, ptr %13, i32 0, i32 0
  %15 = load i64, ptr %14, align 8, !tbaa !17
  %16 = icmp ult i64 %12, %15
  br i1 %16, label %17, label %37

17:                                               ; preds = %11
  %18 = load ptr, ptr %3, align 8, !tbaa !10
  %19 = getelementptr inbounds nuw %struct.stack_st, ptr %18, i32 0, i32 1
  %20 = load ptr, ptr %19, align 8, !tbaa !12
  %21 = load i64, ptr %5, align 8, !tbaa !19
  %22 = getelementptr inbounds nuw ptr, ptr %20, i64 %21
  %23 = load ptr, ptr %22, align 8, !tbaa !6
  %24 = icmp ne ptr %23, null
  br i1 %24, label %25, label %33

25:                                               ; preds = %17
  %26 = load ptr, ptr %4, align 8, !tbaa !6
  %27 = load ptr, ptr %3, align 8, !tbaa !10
  %28 = getelementptr inbounds nuw %struct.stack_st, ptr %27, i32 0, i32 1
  %29 = load ptr, ptr %28, align 8, !tbaa !12
  %30 = load i64, ptr %5, align 8, !tbaa !19
  %31 = getelementptr inbounds nuw ptr, ptr %29, i64 %30
  %32 = load ptr, ptr %31, align 8, !tbaa !6
  call void %26(ptr noundef %32)
  br label %33

33:                                               ; preds = %25, %17
  br label %34

34:                                               ; preds = %33
  %35 = load i64, ptr %5, align 8, !tbaa !19
  %36 = add i64 %35, 1
  store i64 %36, ptr %5, align 8, !tbaa !19
  br label %11, !llvm.loop !20

37:                                               ; preds = %11
  %38 = load ptr, ptr %3, align 8, !tbaa !10
  call void @sk_free(ptr noundef %38)
  store i32 0, ptr %6, align 4
  br label %39

39:                                               ; preds = %37, %9
  call void @llvm.lifetime.end.p0(i64 8, ptr %5) #9
  %40 = load i32, ptr %6, align 4
  switch i32 %40, label %42 [
    i32 0, label %41
    i32 1, label %41
  ]

41:                                               ; preds = %39, %39
  ret void

42:                                               ; preds = %39
  unreachable
}