; Function Attrs: nounwind uwtable
define hidden void @sk_pop_free(ptr noundef captures(address_is_null) %0, ptr noundef readonly captures(none) %1) local_unnamed_addr #7 {
  %3 = icmp eq ptr %0, null
  br i1 %3, label %18, label %.preheader

.preheader:                                       ; preds = %2
  %4 = load i64, ptr %0, align 8, !tbaa !14
  %.not12 = icmp eq i64 %4, 0
  br i1 %.not12, label %sk_free.exit, label %.lr.ph

.lr.ph:                                           ; preds = %.preheader
  %5 = getelementptr inbounds nuw i8, ptr %0, i64 8
  br label %6

6:                                                ; preds = %.lr.ph, %12
  %7 = phi i64 [ %4, %.lr.ph ], [ %13, %12 ]
  %.011 = phi i64 [ 0, %.lr.ph ], [ %14, %12 ]
  %8 = load ptr, ptr %5, align 8, !tbaa !6
  %9 = getelementptr inbounds nuw ptr, ptr %8, i64 %.011
  %10 = load ptr, ptr %9, align 8, !tbaa !16
  %.not = icmp eq ptr %10, null
  br i1 %.not, label %12, label %11

11:                                               ; preds = %6
  tail call void %1(ptr noundef nonnull %10) #17
  %.pre = load i64, ptr %0, align 8, !tbaa !14
  br label %12

12:                                               ; preds = %6, %11
  %13 = phi i64 [ %7, %6 ], [ %.pre, %11 ]
  %14 = add nuw i64 %.011, 1
  %15 = icmp ult i64 %14, %13
  br i1 %15, label %6, label %sk_free.exit, !llvm.loop !17

sk_free.exit:                                     ; preds = %12, %.preheader
  %16 = getelementptr inbounds nuw i8, ptr %0, i64 8
  %17 = load ptr, ptr %16, align 8, !tbaa !6
  tail call void @free(ptr noundef %17) #17
  tail call void @free(ptr noundef nonnull %0) #17
  br label %18

18:                                               ; preds = %2, %sk_free.exit
  ret void
}